target datalayout = "e-m:e-p270:32:32-p271:32:32-p272:64:64-i64:64-i128:128-f80:128-n8:16:32:64-S128"
target triple = "x86_64-pc-linux-gnu"

@H5_libinit_g = external global i8, align 1
@H5_libterm_g = external global i8, align 1
@.str = private unnamed_addr constant [97 x i8] c"generated/home/dtcxzyw/WorkSpace/Projects/compilers/llvm-opt-benchmark/bench/hdf5/hdf5/src/H5I.c\00", align 1
@H5E_FUNC_g = external global i64, align 8
@H5E_CANTINIT_g = external global i64, align 8
@.str.1 = private unnamed_addr constant [30 x i8] c"library initialization failed\00", align 1
@H5E_CANTSET_g = external global i64, align 8
@.str.2 = private unnamed_addr constant [22 x i8] c"can't set API context\00", align 1
@H5I_next_type_g = external global i32, align 4
@H5E_ID_g = external global i64, align 8
@H5E_BADGROUP_g = external global i64, align 8
@.str.6 = private unnamed_addr constant [44 x i8] c"cannot call public function on library type\00", align 1
@H5E_BADID_g = external global i64, align 8
@H5E_CANTGET_g = external global i64, align 8
@.str.17 = private unnamed_addr constant [16 x i8] c"invalid ID type\00", align 1
@__func__.H5Iget_type_ref = private unnamed_addr constant [16 x i8] c"H5Iget_type_ref\00", align 1
@.str.19 = private unnamed_addr constant [28 x i8] c"can't get ID type ref count\00", align 1

; Function Attrs: nounwind uwtable
define i32 @H5Iget_type_ref(i32 noundef %0) #0 {
  %2 = alloca i32, align 4
  %3 = alloca i32, align 4
  %4 = alloca i8, align 1
  %5 = alloca i8, align 1
  store i32 %0, ptr %2, align 4
  store i32 -1, ptr %3, align 4
  store i8 0, ptr %4, align 1
  store i8 0, ptr %5, align 1
  %6 = load i8, ptr @H5_libinit_g, align 1
  %7 = trunc i8 %6 to i1
  br i1 %7, label %12, label %8

8:                                                ; preds = %1
  %9 = load i8, ptr @H5_libterm_g, align 1
  %10 = trunc i8 %9 to i1
  %11 = xor i1 %10, true
  br label %12

12:                                               ; preds = %8, %1
  %13 = phi i1 [ false, %1 ], [ %11, %8 ]
  %14 = xor i1 %13, true
  %15 = xor i1 %14, true
  %16 = zext i1 %15 to i32
  %17 = sext i32 %16 to i64
  %18 = icmp ne i64 %17, 0
  br i1 %18, label %19, label %43

19:                                               ; preds = %12
  %20 = call i32 @H5_init_library()
  %21 = icmp slt i32 %20, 0
  %22 = xor i1 %21, true
  %23 = xor i1 %22, true
  %24 = zext i1 %23 to i32
  %25 = sext i32 %24 to i64
  %26 = icmp ne i64 %25, 0
  br i1 %26, label %27, label %42

27:                                               ; preds = %19
  br label %28

28:                                               ; preds = %27
  br label %29

29:                                               ; preds = %28
  br label %30

30:                                               ; preds = %29
  %31 = load i64, ptr @H5E_FUNC_g, align 8
  %32 = load i64, ptr @H5E_CANTINIT_g, align 8
  %33 = call i32 (ptr, ptr, i32, i64, i64, ptr, ...) @H5E_printf_stack(ptr noundef @.str, ptr noundef @__func__.H5Iget_type_ref, i32 noundef 612, i64 noundef %31, i64 noundef %32, ptr noundef @.str.1)
  br label %34

34:                                               ; preds = %30
  store i8 1, ptr %5, align 1
  %35 = load i8, ptr %5, align 1
  %36 = trunc i8 %35 to i1
  %37 = zext i1 %36 to i8
  store i8 %37, ptr %5, align 1
  br label %38

38:                                               ; preds = %34
  br label %39

39:                                               ; preds = %38
  store i32 -1, ptr %3, align 4
  br label %131

40:                                               ; No predecessors!
  br label %41

41:                                               ; preds = %40
  br label %42

42:                                               ; preds = %41, %19
  br label %43

43:                                               ; preds = %42, %12
  %44 = call i32 @H5CX_push()
  %45 = icmp slt i32 %44, 0
  %46 = xor i1 %45, true
  %47 = xor i1 %46, true
  %48 = zext i1 %47 to i32
  %49 = sext i32 %48 to i64
  %50 = icmp ne i64 %49, 0
  br i1 %50, label %51, label %66

51:                                               ; preds = %43
  br label %52

52:                                               ; preds = %51
  br label %53

53:                                               ; preds = %52
  br label %54

54:                                               ; preds = %53
  %55 = load i64, ptr @H5E_FUNC_g, align 8
  %56 = load i64, ptr @H5E_CANTSET_g, align 8
  %57 = call i32 (ptr, ptr, i32, i64, i64, ptr, ...) @H5E_printf_stack(ptr noundef @.str, ptr noundef @__func__.H5Iget_type_ref, i32 noundef 612, i64 noundef %55, i64 noundef %56, ptr noundef @.str.2)
  br label %58

58:                                               ; preds = %54
  store i8 1, ptr %5, align 1
  %59 = load i8, ptr %5, align 1
  %60 = trunc i8 %59 to i1
  %61 = zext i1 %60 to i8
  store i8 %61, ptr %5, align 1
  br label %62

62:                                               ; preds = %58
  br label %63

63:                                               ; preds = %62
  store i32 -1, ptr %3, align 4
  br label %131

64:                                               ; No predecessors!
  br label %65

65:                                               ; preds = %64
  br label %67

66:                                               ; preds = %43
  store i8 1, ptr %4, align 1
  br label %67

67:                                               ; preds = %66, %65
  %68 = call i32 @H5E_clear_stack()
  %69 = load i32, ptr %2, align 4
  %70 = icmp sle i32 %69, 0
  br i1 %70, label %75, label %71

71:                                               ; preds = %67
  %72 = load i32, ptr %2, align 4
  %73 = load i32, ptr @H5I_next_type_g, align 4
  %74 = icmp sge i32 %72, %73
  br i1 %74, label %75, label %90

75:                                               ; preds = %71, %67
  br label %76

76:                                               ; preds = %75
  br label %77

77:                                               ; preds = %76
  br label %78

78:                                               ; preds = %77
  %79 = load i64, ptr @H5E_ID_g, align 8
  %80 = load i64, ptr @H5E_BADID_g, align 8
  %81 = call i32 (ptr, ptr, i32, i64, i64, ptr, ...) @H5E_printf_stack(ptr noundef @.str, ptr noundef @__func__.H5Iget_type_ref, i32 noundef 616, i64 noundef %79, i64 noundef %80, ptr noundef @.str.17)
  br label %82

82:                                               ; preds = %78
  store i8 1, ptr %5, align 1
  %83 = load i8, ptr %5, align 1
  %84 = trunc i8 %83 to i1
  %85 = zext i1 %84 to i8
  store i8 %85, ptr %5, align 1
  br label %86

86:                                               ; preds = %82
  br label %87

87:                                               ; preds = %86
  store i32 -1, ptr %3, align 4
  br label %131

88:                                               ; No predecessors!
  br label %89

89:                                               ; preds = %88
  br label %90

90:                                               ; preds = %89, %71
  %91 = load i32, ptr %2, align 4
  %92 = icmp sgt i32 %91, 0
  br i1 %92, label %93, label %111

93:                                               ; preds = %90
  %94 = load i32, ptr %2, align 4
  %95 = icmp slt i32 %94, 17
  br i1 %95, label %96, label %111

96:                                               ; preds = %93
  br label %97

97:                                               ; preds = %96
  br label %98

98:                                               ; preds = %97
  br label %99

99:                                               ; preds = %98
  %100 = load i64, ptr @H5E_ID_g, align 8
  %101 = load i64, ptr @H5E_BADGROUP_g, align 8
  %102 = call i32 (ptr, ptr, i32, i64, i64, ptr, ...) @H5E_printf_stack(ptr noundef @.str, ptr noundef @__func__.H5Iget_type_ref, i32 noundef 618, i64 noundef %100, i64 noundef %101, ptr noundef @.str.6)
  br label %103

103:                                              ; preds = %99
  store i8 1, ptr %5, align 1
  %104 = load i8, ptr %5, align 1
  %105 = trunc i8 %104 to i1
  %106 = zext i1 %105 to i8
  store i8 %106, ptr %5, align 1
  br label %107

107:                                              ; preds = %103
  br label %108

108:                                              ; preds = %107
  store i32 -1, ptr %3, align 4
  br label %131

109:                                              ; No predecessors!
  br label %110

110:                                              ; preds = %109
  br label %111

111:                                              ; preds = %110, %93, %90
  %112 = load i32, ptr %2, align 4
  %113 = call i32 @H5I__get_type_ref(i32 noundef %112)
  store i32 %113, ptr %3, align 4
  %114 = icmp slt i32 %113, 0
  br i1 %114, label %115, label %130

115:                                              ; preds = %111
  br label %116

116:                                              ; preds = %115
  br label %117

117:                                              ; preds = %116
  br label %118

118:                                              ; preds = %117
  %119 = load i64, ptr @H5E_ID_g, align 8
  %120 = load i64, ptr @H5E_CANTGET_g, align 8
  %121 = call i32 (ptr, ptr, i32, i64, i64, ptr, ...) @H5E_printf_stack(ptr noundef @.str, ptr noundef @__func__.H5Iget_type_ref, i32 noundef 622, i64 noundef %119, i64 noundef %120, ptr noundef @.str.19)
  br label %122

122:                                              ; preds = %118
  store i8 1, ptr %5, align 1
  %123 = load i8, ptr %5, align 1
  %124 = trunc i8 %123 to i1
  %125 = zext i1 %124 to i8
  store i8 %125, ptr %5, align 1
  br label %126

126:                                              ; preds = %122
  br label %127

127:                                              ; preds = %126
  store i32 -1, ptr %3, align 4
  br label %131

128:                                              ; No predecessors!
  br label %129

129:                                              ; preds = %128
  br label %130

130:                                              ; preds = %129, %111
  br label %131

131:                                              ; preds = %130, %127, %108, %87, %63, %39
  %132 = load i8, ptr %4, align 1
  %133 = trunc i8 %132 to i1
  %134 = xor i1 %133, true
  %135 = xor i1 %134, true
  %136 = zext i1 %135 to i32
  %137 = sext i32 %136 to i64
  %138 = icmp ne i64 %137, 0
  br i1 %138, label %139, label %141

139:                                              ; preds = %131
  %140 = call i32 @H5CX_pop(i1 noundef zeroext true)
  store i8 0, ptr %4, align 1
  br label %141

141:                                              ; preds = %139, %131
  %142 = load i8, ptr %5, align 1
  %143 = trunc i8 %142 to i1
  %144 = xor i1 %143, true
  %145 = xor i1 %144, true
  %146 = zext i1 %145 to i32
  %147 = sext i32 %146 to i64
  %148 = icmp ne i64 %147, 0
  br i1 %148, label %149, label %151

149:                                              ; preds = %141
  %150 = call i32 @H5E_dump_api_stack()
  br label %151

151:                                              ; preds = %149, %141
  %152 = load i32, ptr %3, align 4
  ret i32 %152
}