; Function Attrs: nounwind uwtable
define range(i32 -1, -2147483648) i32 @H5Iget_type_ref(i32 noundef %0) local_unnamed_addr #0 {
  %2 = load i8, ptr @H5_libinit_g, align 1
  %3 = trunc i8 %2 to i1
  %4 = load i8, ptr @H5_libterm_g, align 1
  %5 = trunc i8 %4 to i1
  %6 = select i1 %3, i1 true, i1 %5
  br i1 %6, label %14, label %7

7:                                                ; preds = %1
  %8 = tail call i32 @H5_init_library() #3
  %9 = icmp slt i32 %8, 0
  br i1 %9, label %10, label %14

10:                                               ; preds = %7
  %11 = load i64, ptr @H5E_FUNC_g, align 8
  %12 = load i64, ptr @H5E_CANTINIT_g, align 8
  %13 = tail call i32 (ptr, ptr, i32, i64, i64, ptr, ...) @H5E_printf_stack(ptr noundef nonnull @.str, ptr noundef nonnull @__func__.H5Iget_type_ref, i32 noundef 612, i64 noundef %11, i64 noundef %12, ptr noundef nonnull @.str.1) #3
  br label %.thread26

14:                                               ; preds = %7, %1
  %15 = tail call i32 @H5CX_push() #3
  %16 = icmp slt i32 %15, 0
  br i1 %16, label %17, label %21

17:                                               ; preds = %14
  %18 = load i64, ptr @H5E_FUNC_g, align 8
  %19 = load i64, ptr @H5E_CANTSET_g, align 8
  %20 = tail call i32 (ptr, ptr, i32, i64, i64, ptr, ...) @H5E_printf_stack(ptr noundef nonnull @.str, ptr noundef nonnull @__func__.H5Iget_type_ref, i32 noundef 612, i64 noundef %18, i64 noundef %19, ptr noundef nonnull @.str.2) #3
  br label %.thread26

21:                                               ; preds = %14
  %22 = tail call i32 @H5E_clear_stack() #3
  %23 = icmp sgt i32 %0, 0
  %24 = load i32, ptr @H5I_next_type_g, align 4
  %.not = icmp sgt i32 %24, %0
  %or.cond = select i1 %23, i1 %.not, i1 false
  br i1 %or.cond, label %29, label %25

25:                                               ; preds = %21
  %26 = load i64, ptr @H5E_ID_g, align 8
  %27 = load i64, ptr @H5E_BADID_g, align 8
  %28 = tail call i32 (ptr, ptr, i32, i64, i64, ptr, ...) @H5E_printf_stack(ptr noundef nonnull @.str, ptr noundef nonnull @__func__.H5Iget_type_ref, i32 noundef 616, i64 noundef %26, i64 noundef %27, ptr noundef nonnull @.str.17) #3
  br label %.thread32

29:                                               ; preds = %21
  %30 = icmp ult i32 %0, 17
  br i1 %30, label %31, label %35

31:                                               ; preds = %29
  %32 = load i64, ptr @H5E_ID_g, align 8
  %33 = load i64, ptr @H5E_BADGROUP_g, align 8
  %34 = tail call i32 (ptr, ptr, i32, i64, i64, ptr, ...) @H5E_printf_stack(ptr noundef nonnull @.str, ptr noundef nonnull @__func__.H5Iget_type_ref, i32 noundef 618, i64 noundef %32, i64 noundef %33, ptr noundef nonnull @.str.6) #3
  br label %.thread32

35:                                               ; preds = %29
  %36 = tail call i32 @H5I__get_type_ref(i32 noundef %0) #3
  %37 = icmp slt i32 %36, 0
  br i1 %37, label %38, label %43

38:                                               ; preds = %35
  %39 = load i64, ptr @H5E_ID_g, align 8
  %40 = load i64, ptr @H5E_CANTGET_g, align 8
  %41 = tail call i32 (ptr, ptr, i32, i64, i64, ptr, ...) @H5E_printf_stack(ptr noundef nonnull @.str, ptr noundef nonnull @__func__.H5Iget_type_ref, i32 noundef 622, i64 noundef %39, i64 noundef %40, ptr noundef nonnull @.str.19) #3
  br label %.thread32

.thread32:                                        ; preds = %38, %31, %25
  %42 = tail call i32 @H5CX_pop(i1 noundef zeroext true) #3
  br label %.thread26

43:                                               ; preds = %35
  %44 = tail call i32 @H5CX_pop(i1 noundef zeroext true) #3
  br label %46

.thread26:                                        ; preds = %17, %10, %.thread32
  %45 = tail call i32 @H5E_dump_api_stack() #3
  br label %46

46:                                               ; preds = %43, %.thread26
  %.0152129 = phi i32 [ -1, %.thread26 ], [ %36, %43 ]
  ret i32 %.0152129
}